target datalayout = "e-m:e-p270:32:32-p271:32:32-p272:64:64-i64:64-i128:128-f80:128-n8:16:32:64-S128"
target triple = "x86_64-pc-linux-gnu"

%"class.arrow::compute::FilterOptions" = type <{ %"class.arrow::compute::FunctionOptions", i32, [4 x i8] }>
%"class.arrow::compute::FunctionOptions" = type { ptr, ptr }

@__dso_handle = external hidden global i8
@_ZZN5arrow7compute8internal23GetDefaultFilterOptionsEvE21kDefaultFilterOptions = internal global %"class.arrow::compute::FilterOptions" zeroinitializer, align 8
@_ZGVZN5arrow7compute8internal23GetDefaultFilterOptionsEvE21kDefaultFilterOptions = internal global i64 0, align 8

; Function Attrs: mustprogress uwtable
define linkonce_odr void @_ZN5arrow7compute13FilterOptions8DefaultsEv(ptr dead_on_unwind noalias writable sret(%"class.arrow::compute::FilterOptions") align 8 %0) #1 comdat align 2 {
  %2 = alloca ptr, align 8
  store ptr %0, ptr %2, align 8
  call void @_ZN5arrow7compute13FilterOptionsC1ENS1_21NullSelectionBehaviorE(ptr noundef nonnull align 8 dereferenceable(20) %0, i32 noundef 0)
  ret void
}

; Function Attrs: mustprogress uwtable
define noundef ptr @_ZN5arrow7compute8internal23GetDefaultFilterOptionsEv() #1 personality ptr @__gxx_personality_v0 {
  %1 = alloca ptr, align 8
  %2 = alloca i32, align 4
  %3 = load atomic i8, ptr @_ZGVZN5arrow7compute8internal23GetDefaultFilterOptionsEvE21kDefaultFilterOptions acquire, align 8
  %4 = icmp eq i8 %3, 0
  br i1 %4, label %5, label %11, !prof !452

5:                                                ; preds = %0
  %6 = call i32 @__cxa_guard_acquire(ptr @_ZGVZN5arrow7compute8internal23GetDefaultFilterOptionsEvE21kDefaultFilterOptions) #7
  %7 = icmp ne i32 %6, 0
  br i1 %7, label %8, label %11

8:                                                ; preds = %5
  invoke void @_ZN5arrow7compute13FilterOptions8DefaultsEv(ptr dead_on_unwind writable sret(%"class.arrow::compute::FilterOptions") align 8 @_ZZN5arrow7compute8internal23GetDefaultFilterOptionsEvE21kDefaultFilterOptions)
          to label %9 unwind label %12

9:                                                ; preds = %8
  %10 = call i32 @__cxa_atexit(ptr @_ZN5arrow4util18EqualityComparableINS_7compute15FunctionOptionsEED2Ev, ptr @_ZZN5arrow7compute8internal23GetDefaultFilterOptionsEvE21kDefaultFilterOptions, ptr @__dso_handle) #7
  call void @__cxa_guard_release(ptr @_ZGVZN5arrow7compute8internal23GetDefaultFilterOptionsEvE21kDefaultFilterOptions) #7
  br label %11

11:                                               ; preds = %9, %5, %0
  ret ptr @_ZZN5arrow7compute8internal23GetDefaultFilterOptionsEvE21kDefaultFilterOptions

12:                                               ; preds = %8
  %13 = landingpad { ptr, i32 }
          cleanup
  %14 = extractvalue { ptr, i32 } %13, 0
  store ptr %14, ptr %1, align 8
  %15 = extractvalue { ptr, i32 } %13, 1
  store i32 %15, ptr %2, align 4
  call void @__cxa_guard_abort(ptr @_ZGVZN5arrow7compute8internal23GetDefaultFilterOptionsEvE21kDefaultFilterOptions) #7
  br label %16

16:                                               ; preds = %12
  %17 = load ptr, ptr %1, align 8
  %18 = load i32, ptr %2, align 4
  %19 = insertvalue { ptr, i32 } poison, ptr %17, 0
  %20 = insertvalue { ptr, i32 } %19, i32 %18, 1
  resume { ptr, i32 } %20
}